target datalayout = "e-m:e-p270:32:32-p271:32:32-p272:64:64-i64:64-i128:128-f80:128-n8:16:32:64-S128"
target triple = "x86_64-pc-linux-gnu"

%struct.SortTuple = type { ptr, i64, i8, i32 }

; Function Attrs: inlinehint nounwind uwtable
define internal i32 @DatumGetUInt32(i64 noundef %0) #3 {
  %2 = alloca i64, align 8
  store i64 %0, ptr %2, align 8
  %3 = load i64, ptr %2, align 8
  %4 = trunc i64 %3 to i32
  ret i32 %4
}

; Function Attrs: nounwind uwtable
define internal i32 @comparetup_index_brin(ptr noundef %0, ptr noundef %1, ptr noundef %2) #0 {
  %4 = alloca i32, align 4
  %5 = alloca ptr, align 8
  %6 = alloca ptr, align 8
  %7 = alloca ptr, align 8
  store ptr %0, ptr %5, align 8
  store ptr %1, ptr %6, align 8
  store ptr %2, ptr %7, align 8
  %8 = load ptr, ptr %5, align 8
  %9 = getelementptr inbounds nuw %struct.SortTuple, ptr %8, i32 0, i32 1
  %10 = load i64, ptr %9, align 8
  %11 = call i32 @DatumGetUInt32(i64 noundef %10)
  %12 = load ptr, ptr %6, align 8
  %13 = getelementptr inbounds nuw %struct.SortTuple, ptr %12, i32 0, i32 1
  %14 = load i64, ptr %13, align 8
  %15 = call i32 @DatumGetUInt32(i64 noundef %14)
  %16 = icmp ugt i32 %11, %15
  br i1 %16, label %17, label %18

17:                                               ; preds = %3
  store i32 1, ptr %4, align 4
  br label %30

18:                                               ; preds = %3
  %19 = load ptr, ptr %5, align 8
  %20 = getelementptr inbounds nuw %struct.SortTuple, ptr %19, i32 0, i32 1
  %21 = load i64, ptr %20, align 8
  %22 = call i32 @DatumGetUInt32(i64 noundef %21)
  %23 = load ptr, ptr %6, align 8
  %24 = getelementptr inbounds nuw %struct.SortTuple, ptr %23, i32 0, i32 1
  %25 = load i64, ptr %24, align 8
  %26 = call i32 @DatumGetUInt32(i64 noundef %25)
  %27 = icmp ult i32 %22, %26
  br i1 %27, label %28, label %29

28:                                               ; preds = %18
  store i32 -1, ptr %4, align 4
  br label %30

29:                                               ; preds = %18
  store i32 0, ptr %4, align 4
  br label %30

30:                                               ; preds = %29, %28, %17
  %31 = load i32, ptr %4, align 4
  ret i32 %31
}